ccopy_reg
_reconstructor
p0
(ctextblob.classifiers
NaiveBayesClassifier
p1
c__builtin__
object
p2
Ntp3
Rp4
(dp5
S'train_features'
p6
(lp7
((dp8
Vcontains(The)
p9
I00
sVcontains(of)
p10
I00
sVcontains(motherfucker)
p11
I00
sVcontains(love)
p12
I00
sVcontains('re)
p13
I00
sVcontains(beer)
p14
I00
sVcontains(Great)
p15
I00
sVcontains(feel)
p16
I00
sVcontains(awesome)
p17
I00
sVcontains(kill)
p18
I00
sVcontains(die)
p19
I00
sVcontains(asshole)
p20
I00
sVcontains(a)
p21
I00
sVcontains(you)
p22
I00
sVcontains(mine)
p23
I00
sVcontains(dick)
p24
I00
sVcontains(friend)
p25
I00
sVcontains(dickhead)
p26
I00
sVcontains(Amazing)
p27
I00
sVcontains(fuck)
p28
I01
sVcontains(good)
p29
I00
sVcontains(was)
p30
I00
sVcontains(hate)
p31
I00
sVcontains(amazing)
p32
I00
sS'True'
p33
tp34
a((dp35
Vcontains(The)
p36
I00
sVcontains(of)
p37
I00
sVcontains(motherfucker)
p38
I00
sVcontains(love)
p39
I00
sVcontains('re)
p40
I00
sVcontains(beer)
p41
I00
sVcontains(Great)
p42
I00
sVcontains(feel)
p43
I00
sVcontains(awesome)
p44
I00
sVcontains(kill)
p45
I01
sVcontains(die)
p46
I00
sVcontains(asshole)
p47
I00
sVcontains(a)
p48
I00
sVcontains(you)
p49
I00
sVcontains(mine)
p50
I00
sVcontains(dick)
p51
I00
sVcontains(friend)
p52
I00
sVcontains(dickhead)
p53
I00
sVcontains(Amazing)
p54
I00
sVcontains(fuck)
p55
I00
sVcontains(good)
p56
I00
sVcontains(was)
p57
I00
sVcontains(hate)
p58
I00
sVcontains(amazing)
p59
I00
sg33
tp60
a((dp61
Vcontains(The)
p62
I00
sVcontains(of)
p63
I00
sVcontains(motherfucker)
p64
I00
sVcontains(love)
p65
I00
sVcontains('re)
p66
I00
sVcontains(beer)
p67
I00
sVcontains(Great)
p68
I00
sVcontains(feel)
p69
I00
sVcontains(awesome)
p70
I00
sVcontains(kill)
p71
I00
sVcontains(die)
p72
I00
sVcontains(asshole)
p73
I00
sVcontains(a)
p74
I00
sVcontains(you)
p75
I00
sVcontains(mine)
p76
I00
sVcontains(dick)
p77
I01
sVcontains(friend)
p78
I00
sVcontains(dickhead)
p79
I00
sVcontains(Amazing)
p80
I00
sVcontains(fuck)
p81
I00
sVcontains(good)
p82
I00
sVcontains(was)
p83
I00
sVcontains(hate)
p84
I00
sVcontains(amazing)
p85
I00
sg33
tp86
a((dp87
Vcontains(The)
p88
I00
sVcontains(of)
p89
I00
sVcontains(motherfucker)
p90
I00
sVcontains(love)
p91
I00
sVcontains('re)
p92
I00
sVcontains(beer)
p93
I00
sVcontains(Great)
p94
I00
sVcontains(feel)
p95
I00
sVcontains(awesome)
p96
I00
sVcontains(kill)
p97
I00
sVcontains(die)
p98
I01
sVcontains(asshole)
p99
I00
sVcontains(a)
p100
I00
sVcontains(you)
p101
I00
sVcontains(mine)
p102
I00
sVcontains(dick)
p103
I00
sVcontains(friend)
p104
I00
sVcontains(dickhead)
p105
I00
sVcontains(Amazing)
p106
I00
sVcontains(fuck)
p107
I00
sVcontains(good)
p108
I00
sVcontains(was)
p109
I00
sVcontains(hate)
p110
I00
sVcontains(amazing)
p111
I00
sg33
tp112
a((dp113
Vcontains(The)
p114
I00
sVcontains(of)
p115
I00
sVcontains(motherfucker)
p116
I00
sVcontains(love)
p117
I00
sVcontains('re)
p118
I00
sVcontains(beer)
p119
I00
sVcontains(Great)
p120
I00
sVcontains(feel)
p121
I00
sVcontains(awesome)
p122
I00
sVcontains(kill)
p123
I00
sVcontains(die)
p124
I00
sVcontains(asshole)
p125
I00
sVcontains(a)
p126
I00
sVcontains(you)
p127
I00
sVcontains(mine)
p128
I00
sVcontains(dick)
p129
I00
sVcontains(friend)
p130
I00
sVcontains(dickhead)
p131
I00
sVcontains(Amazing)
p132
I00
sVcontains(fuck)
p133
I00
sVcontains(good)
p134
I00
sVcontains(was)
p135
I00
sVcontains(hate)
p136
I01
sVcontains(amazing)
p137
I00
sg33
tp138
a((dp139
Vcontains(The)
p140
I00
sVcontains(of)
p141
I00
sVcontains(motherfucker)
p142
I00
sVcontains(love)
p143
I00
sVcontains('re)
p144
I00
sVcontains(beer)
p145
I00
sVcontains(Great)
p146
I00
sVcontains(feel)
p147
I00
sVcontains(awesome)
p148
I00
sVcontains(kill)
p149
I00
sVcontains(die)
p150
I00
sVcontains(asshole)
p151
I01
sVcontains(a)
p152
I00
sVcontains(you)
p153
I00
sVcontains(mine)
p154
I00
sVcontains(dick)
p155
I00
sVcontains(friend)
p156
I00
sVcontains(dickhead)
p157
I00
sVcontains(Amazing)
p158
I00
sVcontains(fuck)
p159
I00
sVcontains(good)
p160
I00
sVcontains(was)
p161
I00
sVcontains(hate)
p162
I00
sVcontains(amazing)
p163
I00
sg33
tp164
a((dp165
Vcontains(The)
p166
I00
sVcontains(of)
p167
I00
sVcontains(motherfucker)
p168
I00
sVcontains(love)
p169
I00
sVcontains('re)
p170
I00
sVcontains(beer)
p171
I00
sVcontains(Great)
p172
I00
sVcontains(feel)
p173
I00
sVcontains(awesome)
p174
I00
sVcontains(kill)
p175
I00
sVcontains(die)
p176
I00
sVcontains(asshole)
p177
I00
sVcontains(a)
p178
I00
sVcontains(you)
p179
I00
sVcontains(mine)
p180
I00
sVcontains(dick)
p181
I00
sVcontains(friend)
p182
I00
sVcontains(dickhead)
p183
I01
sVcontains(Amazing)
p184
I00
sVcontains(fuck)
p185
I00
sVcontains(good)
p186
I00
sVcontains(was)
p187
I00
sVcontains(hate)
p188
I00
sVcontains(amazing)
p189
I00
sg33
tp190
a((dp191
Vcontains(The)
p192
I00
sVcontains(of)
p193
I00
sVcontains(motherfucker)
p194
I01
sVcontains(love)
p195
I00
sVcontains('re)
p196
I00
sVcontains(beer)
p197
I00
sVcontains(Great)
p198
I00
sVcontains(feel)
p199
I00
sVcontains(awesome)
p200
I00
sVcontains(kill)
p201
I00
sVcontains(die)
p202
I00
sVcontains(asshole)
p203
I00
sVcontains(a)
p204
I00
sVcontains(you)
p205
I00
sVcontains(mine)
p206
I00
sVcontains(dick)
p207
I00
sVcontains(friend)
p208
I00
sVcontains(dickhead)
p209
I00
sVcontains(Amazing)
p210
I00
sVcontains(fuck)
p211
I00
sVcontains(good)
p212
I00
sVcontains(was)
p213
I00
sVcontains(hate)
p214
I00
sVcontains(amazing)
p215
I00
sg33
tp216
a((dp217
Vcontains(The)
p218
I01
sVcontains(of)
p219
I00
sVcontains(motherfucker)
p220
I00
sVcontains(love)
p221
I00
sVcontains('re)
p222
I00
sVcontains(beer)
p223
I01
sVcontains(Great)
p224
I00
sVcontains(feel)
p225
I00
sVcontains(awesome)
p226
I00
sVcontains(kill)
p227
I00
sVcontains(die)
p228
I00
sVcontains(asshole)
p229
I00
sVcontains(a)
p230
I00
sVcontains(you)
p231
I00
sVcontains(mine)
p232
I00
sVcontains(dick)
p233
I00
sVcontains(friend)
p234
I00
sVcontains(dickhead)
p235
I00
sVcontains(Amazing)
p236
I00
sVcontains(fuck)
p237
I00
sVcontains(good)
p238
I01
sVcontains(was)
p239
I01
sVcontains(hate)
p240
I00
sVcontains(amazing)
p241
I00
sS'False'
p242
tp243
a((dp244
Vcontains(The)
p245
I00
sVcontains(of)
p246
I00
sVcontains(motherfucker)
p247
I00
sVcontains(love)
p248
I00
sVcontains('re)
p249
I00
sVcontains(beer)
p250
I00
sVcontains(Great)
p251
I00
sVcontains(feel)
p252
I01
sVcontains(awesome)
p253
I00
sVcontains(kill)
p254
I00
sVcontains(die)
p255
I00
sVcontains(asshole)
p256
I00
sVcontains(a)
p257
I00
sVcontains(you)
p258
I00
sVcontains(mine)
p259
I00
sVcontains(dick)
p260
I00
sVcontains(friend)
p261
I00
sVcontains(dickhead)
p262
I00
sVcontains(Amazing)
p263
I00
sVcontains(fuck)
p264
I00
sVcontains(good)
p265
I00
sVcontains(was)
p266
I00
sVcontains(hate)
p267
I00
sVcontains(amazing)
p268
I01
sg242
tp269
a((dp270
Vcontains(The)
p271
I00
sVcontains(of)
p272
I01
sVcontains(motherfucker)
p273
I00
sVcontains(love)
p274
I00
sVcontains('re)
p275
I00
sVcontains(beer)
p276
I00
sVcontains(Great)
p277
I00
sVcontains(feel)
p278
I00
sVcontains(awesome)
p279
I00
sVcontains(kill)
p280
I00
sVcontains(die)
p281
I00
sVcontains(asshole)
p282
I00
sVcontains(a)
p283
I01
sVcontains(you)
p284
I00
sVcontains(mine)
p285
I01
sVcontains(dick)
p286
I00
sVcontains(friend)
p287
I01
sVcontains(dickhead)
p288
I00
sVcontains(Amazing)
p289
I00
sVcontains(fuck)
p290
I00
sVcontains(good)
p291
I00
sVcontains(was)
p292
I00
sVcontains(hate)
p293
I00
sVcontains(amazing)
p294
I00
sg242
tp295
a((dp296
Vcontains(The)
p297
I00
sVcontains(of)
p298
I00
sVcontains(motherfucker)
p299
I00
sVcontains(love)
p300
I00
sVcontains('re)
p301
I00
sVcontains(beer)
p302
I00
sVcontains(Great)
p303
I00
sVcontains(feel)
p304
I00
sVcontains(awesome)
p305
I00
sVcontains(kill)
p306
I00
sVcontains(die)
p307
I00
sVcontains(asshole)
p308
I00
sVcontains(a)
p309
I00
sVcontains(you)
p310
I00
sVcontains(mine)
p311
I00
sVcontains(dick)
p312
I00
sVcontains(friend)
p313
I00
sVcontains(dickhead)
p314
I00
sVcontains(Amazing)
p315
I01
sVcontains(fuck)
p316
I00
sVcontains(good)
p317
I00
sVcontains(was)
p318
I00
sVcontains(hate)
p319
I00
sVcontains(amazing)
p320
I00
sg242
tp321
a((dp322
Vcontains(The)
p323
I00
sVcontains(of)
p324
I00
sVcontains(motherfucker)
p325
I00
sVcontains(love)
p326
I00
sVcontains('re)
p327
I00
sVcontains(beer)
p328
I00
sVcontains(Great)
p329
I01
sVcontains(feel)
p330
I00
sVcontains(awesome)
p331
I00
sVcontains(kill)
p332
I00
sVcontains(die)
p333
I00
sVcontains(asshole)
p334
I00
sVcontains(a)
p335
I00
sVcontains(you)
p336
I00
sVcontains(mine)
p337
I00
sVcontains(dick)
p338
I00
sVcontains(friend)
p339
I00
sVcontains(dickhead)
p340
I00
sVcontains(Amazing)
p341
I00
sVcontains(fuck)
p342
I00
sVcontains(good)
p343
I00
sVcontains(was)
p344
I00
sVcontains(hate)
p345
I00
sVcontains(amazing)
p346
I00
sg242
tp347
a((dp348
Vcontains(The)
p349
I00
sVcontains(of)
p350
I00
sVcontains(motherfucker)
p351
I00
sVcontains(love)
p352
I01
sVcontains('re)
p353
I00
sVcontains(beer)
p354
I00
sVcontains(Great)
p355
I00
sVcontains(feel)
p356
I00
sVcontains(awesome)
p357
I00
sVcontains(kill)
p358
I00
sVcontains(die)
p359
I00
sVcontains(asshole)
p360
I00
sVcontains(a)
p361
I00
sVcontains(you)
p362
I00
sVcontains(mine)
p363
I00
sVcontains(dick)
p364
I00
sVcontains(friend)
p365
I00
sVcontains(dickhead)
p366
I00
sVcontains(Amazing)
p367
I00
sVcontains(fuck)
p368
I00
sVcontains(good)
p369
I00
sVcontains(was)
p370
I00
sVcontains(hate)
p371
I00
sVcontains(amazing)
p372
I00
sg242
tp373
a((dp374
Vcontains(The)
p375
I00
sVcontains(of)
p376
I00
sVcontains(motherfucker)
p377
I00
sVcontains(love)
p378
I00
sVcontains('re)
p379
I00
sVcontains(beer)
p380
I00
sVcontains(Great)
p381
I00
sVcontains(feel)
p382
I00
sVcontains(awesome)
p383
I01
sVcontains(kill)
p384
I00
sVcontains(die)
p385
I00
sVcontains(asshole)
p386
I00
sVcontains(a)
p387
I00
sVcontains(you)
p388
I00
sVcontains(mine)
p389
I00
sVcontains(dick)
p390
I00
sVcontains(friend)
p391
I00
sVcontains(dickhead)
p392
I00
sVcontains(Amazing)
p393
I00
sVcontains(fuck)
p394
I00
sVcontains(good)
p395
I00
sVcontains(was)
p396
I00
sVcontains(hate)
p397
I00
sVcontains(amazing)
p398
I00
sg242
tp399
a((dp400
Vcontains(The)
p401
I00
sVcontains(of)
p402
I00
sVcontains(motherfucker)
p403
I00
sVcontains(love)
p404
I00
sVcontains('re)
p405
I00
sVcontains(beer)
p406
I00
sVcontains(Great)
p407
I00
sVcontains(feel)
p408
I00
sVcontains(awesome)
p409
I01
sVcontains(kill)
p410
I00
sVcontains(die)
p411
I00
sVcontains(asshole)
p412
I00
sVcontains(a)
p413
I00
sVcontains(you)
p414
I01
sVcontains(mine)
p415
I00
sVcontains(dick)
p416
I00
sVcontains(friend)
p417
I00
sVcontains(dickhead)
p418
I00
sVcontains(Amazing)
p419
I00
sVcontains(fuck)
p420
I00
sVcontains(good)
p421
I00
sVcontains(was)
p422
I00
sVcontains(hate)
p423
I00
sVcontains(amazing)
p424
I00
sg242
tp425
asS'train_set'
p426
(lp427
(S'fuck'
p428
g33
tp429
a(S'kill'
p430
g33
tp431
a(S'dick'
p432
g33
tp433
a(S'die'
p434
g33
tp435
a(S'hate'
p436
g33
tp437
a(S'asshole'
p438
g33
tp439
a(S'dickhead'
p440
g33
tp441
a(S'motherfucker'
p442
g33
tp443
a(S'The beer was good.'
p444
g242
tp445
a(S'feel amazing!'
p446
g242
tp447
a(S'a friend of mine.'
p448
g242
tp449
a(S'Amazing'
p450
g242
tp451
a(S'Great'
p452
g242
tp453
a(S'love'
p454
g242
tp455
a(S'awesome'
p456
g242
tp457
a(S"you're awesome"
p458
g242
tp459
asS'feature_extractor'
p460
ctextblob.classifiers
basic_extractor
p461
sS'classifier'
p462
g0
(cnltk.classify.naivebayes
NaiveBayesClassifier
p463
g2
Ntp464
Rp465
(dp466
S'_labels'
p467
(lp468
g242
ag33
asS'_feature_probdist'
p469
(dp470
(g242
g231
tp471
g0
(cnltk.probability
ELEProbDist
p472
g2
Ntp473
Rp474
(dp475
S'_gamma'
p476
F0.5
sS'_N'
p477
I8
sS'_freqdist'
p478
g0
(cnltk.probability
FreqDist
p479
c__builtin__
dict
p480
(dp481
I00
I7
sI01
I1
stp482
Rp483
(dp484
g477
I8
sS'_max_cache'
p485
NsS'_item_cache'
p486
(lp487
(I00
I7
tp488
a(I01
I1
tp489
asS'_Nr_cache'
p490
NsbsS'_bins'
p491
I3
sS'_divisor'
p492
F9.5
sbs(g33
g16
tp493
g0
(g472
g2
Ntp494
Rp495
(dp496
g476
F0.5
sg477
I8
sg478
g0
(g479
g480
(dp497
I00
I8
stp498
Rp499
(dp500
g477
I8
sg485
Nsg486
(lp501
(I00
I8
tp502
asg490
Nsbsg491
I3
sg492
F9.5
sbs(g242
g238
tp503
g0
(g472
g2
Ntp504
Rp505
(dp506
g476
F0.5
sg477
I8
sg478
g0
(g479
g480
(dp507
I00
I7
sI01
I1
stp508
Rp509
(dp510
g477
I8
sg485
Nsg486
(lp511
(I00
I7
tp512
a(I01
I1
tp513
asg490
Nsbsg491
I3
sg492
F9.5
sbs(g242
g226
tp514
g0
(g472
g2
Ntp515
Rp516
(dp517
g476
F0.5
sg477
I8
sg478
g0
(g479
g480
(dp518
I00
I6
sI01
I2
stp519
Rp520
(dp521
g477
I8
sg485
Nsg486
(lp522
(I00
I6
tp523
a(I01
I2
tp524
asg490
Nsbsg491
I3
sg492
F9.5
sbs(g242
g235
tp525
g0
(g472
g2
Ntp526
Rp527
(dp528
g476
F0.5
sg477
I8
sg478
g0
(g479
g480
(dp529
I00
I8
stp530
Rp531
(dp532
g477
I8
sg485
Nsg486
(lp533
(I00
I8
tp534
asg490
Nsbsg491
I3
sg492
F9.5
sbs(g33
g30
tp535
g0
(g472
g2
Ntp536
Rp537
(dp538
g476
F0.5
sg477
I8
sg478
g0
(g479
g480
(dp539
I00
I8
stp540
Rp541
(dp542
g477
I8
sg485
Nsg486
(lp543
(I00
I8
tp544
asg490
Nsbsg491
I3
sg492
F9.5
sbs(g242
g236
tp545
g0
(g472
g2
Ntp546
Rp547
(dp548
g476
F0.5
sg477
I8
sg478
g0
(g479
g480
(dp549
I00
I7
sI01
I1
stp550
Rp551
(dp552
g477
I8
sg485
Nsg486
(lp553
(I00
I7
tp554
a(I01
I1
tp555
asg490
Nsbsg491
I3
sg492
F9.5
sbs(g33
g11
tp556
g0
(g472
g2
Ntp557
Rp558
(dp559
g476
F0.5
sg477
I8
sg478
g0
(g479
g480
(dp560
I00
I7
sI01
I1
stp561
Rp562
(dp563
g477
I8
sg485
Nsg486
(lp564
(I00
I7
tp565
a(I01
I1
tp566
asg490
Nsbsg491
I3
sg492
F9.5
sbs(g33
g18
tp567
g0
(g472
g2
Ntp568
Rp569
(dp570
g476
F0.5
sg477
I8
sg478
g0
(g479
g480
(dp571
I00
I7
sI01
I1
stp572
Rp573
(dp574
g477
I8
sg485
Nsg486
(lp575
(I00
I7
tp576
a(I01
I1
tp577
asg490
Nsbsg491
I3
sg492
F9.5
sbs(g242
g221
tp578
g0
(g472
g2
Ntp579
Rp580
(dp581
g476
F0.5
sg477
I8
sg478
g0
(g479
g480
(dp582
I00
I7
sI01
I1
stp583
Rp584
(dp585
g477
I8
sg485
Nsg486
(lp586
(I00
I7
tp587
a(I01
I1
tp588
asg490
Nsbsg491
I3
sg492
F9.5
sbs(g33
g24
tp589
g0
(g472
g2
Ntp590
Rp591
(dp592
g476
F0.5
sg477
I8
sg478
g0
(g479
g480
(dp593
I00
I7
sI01
I1
stp594
Rp595
(dp596
g477
I8
sg485
Nsg486
(lp597
(I00
I7
tp598
a(I01
I1
tp599
asg490
Nsbsg491
I3
sg492
F9.5
sbs(g33
g32
tp600
g0
(g472
g2
Ntp601
Rp602
(dp603
g476
F0.5
sg477
I8
sg478
g0
(g479
g480
(dp604
I00
I8
stp605
Rp606
(dp607
g477
I8
sg485
Nsg486
(lp608
(I00
I8
tp609
asg490
Nsbsg491
I3
sg492
F9.5
sbs(g33
g31
tp610
g0
(g472
g2
Ntp611
Rp612
(dp613
g476
F0.5
sg477
I8
sg478
g0
(g479
g480
(dp614
I00
I7
sI01
I1
stp615
Rp616
(dp617
g477
I8
sg485
Nsg486
(lp618
(I00
I7
tp619
a(I01
I1
tp620
asg490
Nsbsg491
I3
sg492
F9.5
sbs(g33
g13
tp621
g0
(g472
g2
Ntp622
Rp623
(dp624
g476
F0.5
sg477
I8
sg478
g0
(g479
g480
(dp625
I00
I8
stp626
Rp627
(dp628
g477
I8
sg485
Nsg486
(lp629
(I00
I8
tp630
asg490
Nsbsg491
I2
sg492
F9.0
sbs(g33
g22
tp631
g0
(g472
g2
Ntp632
Rp633
(dp634
g476
F0.5
sg477
I8
sg478
g0
(g479
g480
(dp635
I00
I8
stp636
Rp637
(dp638
g477
I8
sg485
Nsg486
(lp639
(I00
I8
tp640
asg490
Nsbsg491
I3
sg492
F9.5
sbs(g33
g29
tp641
g0
(g472
g2
Ntp642
Rp643
(dp644
g476
F0.5
sg477
I8
sg478
g0
(g479
g480
(dp645
I00
I8
stp646
Rp647
(dp648
g477
I8
sg485
Nsg486
(lp649
(I00
I8
tp650
asg490
Nsbsg491
I3
sg492
F9.5
sbs(g242
g232
tp651
g0
(g472
g2
Ntp652
Rp653
(dp654
g476
F0.5
sg477
I8
sg478
g0
(g479
g480
(dp655
I00
I7
sI01
I1
stp656
Rp657
(dp658
g477
I8
sg485
Nsg486
(lp659
(I00
I7
tp660
a(I01
I1
tp661
asg490
Nsbsg491
I3
sg492
F9.5
sbs(g33
g19
tp662
g0
(g472
g2
Ntp663
Rp664
(dp665
g476
F0.5
sg477
I8
sg478
g0
(g479
g480
(dp666
I00
I7
sI01
I1
stp667
Rp668
(dp669
g477
I8
sg485
Nsg486
(lp670
(I00
I7
tp671
a(I01
I1
tp672
asg490
Nsbsg491
I3
sg492
F9.5
sbs(g242
g241
tp673
g0
(g472
g2
Ntp674
Rp675
(dp676
g476
F0.5
sg477
I8
sg478
g0
(g479
g480
(dp677
I00
I7
sI01
I1
stp678
Rp679
(dp680
g477
I8
sg485
Nsg486
(lp681
(I00
I7
tp682
a(I01
I1
tp683
asg490
Nsbsg491
I3
sg492
F9.5
sbs(g242
g228
tp684
g0
(g472
g2
Ntp685
Rp686
(dp687
g476
F0.5
sg477
I8
sg478
g0
(g479
g480
(dp688
I00
I8
stp689
Rp690
(dp691
g477
I8
sg485
Nsg486
(lp692
(I00
I8
tp693
asg490
Nsbsg491
I3
sg492
F9.5
sbs(g242
g222
tp694
g0
(g472
g2
Ntp695
Rp696
(dp697
g476
F0.5
sg477
I8
sg478
g0
(g479
g480
(dp698
I00
I8
stp699
Rp700
(dp701
g477
I8
sg485
Nsg486
(lp702
(I00
I8
tp703
asg490
Nsbsg491
I2
sg492
F9.0
sbs(g33
g25
tp704
g0
(g472
g2
Ntp705
Rp706
(dp707
g476
F0.5
sg477
I8
sg478
g0
(g479
g480
(dp708
I00
I8
stp709
Rp710
(dp711
g477
I8
sg485
Nsg486
(lp712
(I00
I8
tp713
asg490
Nsbsg491
I3
sg492
F9.5
sbs(g242
g237
tp714
g0
(g472
g2
Ntp715
Rp716
(dp717
g476
F0.5
sg477
I8
sg478
g0
(g479
g480
(dp718
I00
I8
stp719
Rp720
(dp721
g477
I8
sg485
Nsg486
(lp722
(I00
I8
tp723
asg490
Nsbsg491
I3
sg492
F9.5
sbs(g242
g218
tp724
g0
(g472
g2
Ntp725
Rp726
(dp727
g476
F0.5
sg477
I8
sg478
g0
(g479
g480
(dp728
I00
I7
sI01
I1
stp729
Rp730
(dp731
g477
I8
sg485
Nsg486
(lp732
(I00
I7
tp733
a(I01
I1
tp734
asg490
Nsbsg491
I3
sg492
F9.5
sbs(g33
g17
tp735
g0
(g472
g2
Ntp736
Rp737
(dp738
g476
F0.5
sg477
I8
sg478
g0
(g479
g480
(dp739
I00
I8
stp740
Rp741
(dp742
g477
I8
sg485
Nsg486
(lp743
(I00
I8
tp744
asg490
Nsbsg491
I3
sg492
F9.5
sbs(g242
g239
tp745
g0
(g472
g2
Ntp746
Rp747
(dp748
g476
F0.5
sg477
I8
sg478
g0
(g479
g480
(dp749
I00
I7
sI01
I1
stp750
Rp751
(dp752
g477
I8
sg485
Nsg486
(lp753
(I00
I7
tp754
a(I01
I1
tp755
asg490
Nsbsg491
I3
sg492
F9.5
sbs(g242
g220
tp756
g0
(g472
g2
Ntp757
Rp758
(dp759
g476
F0.5
sg477
I8
sg478
g0
(g479
g480
(dp760
I00
I8
stp761
Rp762
(dp763
g477
I8
sg485
Nsg486
(lp764
(I00
I8
tp765
asg490
Nsbsg491
I3
sg492
F9.5
sbs(g242
g230
tp766
g0
(g472
g2
Ntp767
Rp768
(dp769
g476
F0.5
sg477
I8
sg478
g0
(g479
g480
(dp770
I00
I7
sI01
I1
stp771
Rp772
(dp773
g477
I8
sg485
Nsg486
(lp774
(I00
I7
tp775
a(I01
I1
tp776
asg490
Nsbsg491
I3
sg492
F9.5
sbs(g33
g28
tp777
g0
(g472
g2
Ntp778
Rp779
(dp780
g476
F0.5
sg477
I8
sg478
g0
(g479
g480
(dp781
I00
I7
sI01
I1
stp782
Rp783
(dp784
g477
I8
sg485
Nsg486
(lp785
(I00
I7
tp786
a(I01
I1
tp787
asg490
Nsbsg491
I3
sg492
F9.5
sbs(g242
g225
tp788
g0
(g472
g2
Ntp789
Rp790
(dp791
g476
F0.5
sg477
I8
sg478
g0
(g479
g480
(dp792
I00
I7
sI01
I1
stp793
Rp794
(dp795
g477
I8
sg485
Nsg486
(lp796
(I00
I7
tp797
a(I01
I1
tp798
asg490
Nsbsg491
I3
sg492
F9.5
sbs(g242
g233
tp799
g0
(g472
g2
Ntp800
Rp801
(dp802
g476
F0.5
sg477
I8
sg478
g0
(g479
g480
(dp803
I00
I8
stp804
Rp805
(dp806
g477
I8
sg485
Nsg486
(lp807
(I00
I8
tp808
asg490
Nsbsg491
I3
sg492
F9.5
sbs(g33
g9
tp809
g0
(g472
g2
Ntp810
Rp811
(dp812
g476
F0.5
sg477
I8
sg478
g0
(g479
g480
(dp813
I00
I8
stp814
Rp815
(dp816
g477
I8
sg485
Nsg486
(lp817
(I00
I8
tp818
asg490
Nsbsg491
I3
sg492
F9.5
sbs(g33
g26
tp819
g0
(g472
g2
Ntp820
Rp821
(dp822
g476
F0.5
sg477
I8
sg478
g0
(g479
g480
(dp823
I00
I7
sI01
I1
stp824
Rp825
(dp826
g477
I8
sg485
Nsg486
(lp827
(I00
I7
tp828
a(I01
I1
tp829
asg490
Nsbsg491
I3
sg492
F9.5
sbs(g242
g240
tp830
g0
(g472
g2
Ntp831
Rp832
(dp833
g476
F0.5
sg477
I8
sg478
g0
(g479
g480
(dp834
I00
I8
stp835
Rp836
(dp837
g477
I8
sg485
Nsg486
(lp838
(I00
I8
tp839
asg490
Nsbsg491
I3
sg492
F9.5
sbs(g242
g219
tp840
g0
(g472
g2
Ntp841
Rp842
(dp843
g476
F0.5
sg477
I8
sg478
g0
(g479
g480
(dp844
I00
I7
sI01
I1
stp845
Rp846
(dp847
g477
I8
sg485
Nsg486
(lp848
(I00
I7
tp849
a(I01
I1
tp850
asg490
Nsbsg491
I3
sg492
F9.5
sbs(g242
g223
tp851
g0
(g472
g2
Ntp852
Rp853
(dp854
g476
F0.5
sg477
I8
sg478
g0
(g479
g480
(dp855
I00
I7
sI01
I1
stp856
Rp857
(dp858
g477
I8
sg485
Nsg486
(lp859
(I00
I7
tp860
a(I01
I1
tp861
asg490
Nsbsg491
I3
sg492
F9.5
sbs(g242
g227
tp862
g0
(g472
g2
Ntp863
Rp864
(dp865
g476
F0.5
sg477
I8
sg478
g0
(g479
g480
(dp866
I00
I8
stp867
Rp868
(dp869
g477
I8
sg485
Nsg486
(lp870
(I00
I8
tp871
asg490
Nsbsg491
I3
sg492
F9.5
sbs(g33
g20
tp872
g0
(g472
g2
Ntp873
Rp874
(dp875
g476
F0.5
sg477
I8
sg478
g0
(g479
g480
(dp876
I00
I7
sI01
I1
stp877
Rp878
(dp879
g477
I8
sg485
Nsg486
(lp880
(I00
I7
tp881
a(I01
I1
tp882
asg490
Nsbsg491
I3
sg492
F9.5
sbs(g33
g21
tp883
g0
(g472
g2
Ntp884
Rp885
(dp886
g476
F0.5
sg477
I8
sg478
g0
(g479
g480
(dp887
I00
I8
stp888
Rp889
(dp890
g477
I8
sg485
Nsg486
(lp891
(I00
I8
tp892
asg490
Nsbsg491
I3
sg492
F9.5
sbs(g242
g224
tp893
g0
(g472
g2
Ntp894
Rp895
(dp896
g476
F0.5
sg477
I8
sg478
g0
(g479
g480
(dp897
I00
I7
sI01
I1
stp898
Rp899
(dp900
g477
I8
sg485
Nsg486
(lp901
(I00
I7
tp902
a(I01
I1
tp903
asg490
Nsbsg491
I3
sg492
F9.5
sbs(g33
g23
tp904
g0
(g472
g2
Ntp905
Rp906
(dp907
g476
F0.5
sg477
I8
sg478
g0
(g479
g480
(dp908
I00
I8
stp909
Rp910
(dp911
g477
I8
sg485
Nsg486
(lp912
(I00
I8
tp913
asg490
Nsbsg491
I3
sg492
F9.5
sbs(g242
g234
tp914
g0
(g472
g2
Ntp915
Rp916
(dp917
g476
F0.5
sg477
I8
sg478
g0
(g479
g480
(dp918
I00
I7
sI01
I1
stp919
Rp920
(dp921
g477
I8
sg485
Nsg486
(lp922
(I00
I7
tp923
a(I01
I1
tp924
asg490
Nsbsg491
I3
sg492
F9.5
sbs(g33
g10
tp925
g0
(g472
g2
Ntp926
Rp927
(dp928
g476
F0.5
sg477
I8
sg478
g0
(g479
g480
(dp929
I00
I8
stp930
Rp931
(dp932
g477
I8
sg485
Nsg486
(lp933
(I00
I8
tp934
asg490
Nsbsg491
I3
sg492
F9.5
sbs(g33
g15
tp935
g0
(g472
g2
Ntp936
Rp937
(dp938
g476
F0.5
sg477
I8
sg478
g0
(g479
g480
(dp939
I00
I8
stp940
Rp941
(dp942
g477
I8
sg485
Nsg486
(lp943
(I00
I8
tp944
asg490
Nsbsg491
I3
sg492
F9.5
sbs(g33
g14
tp945
g0
(g472
g2
Ntp946
Rp947
(dp948
g476
F0.5
sg477
I8
sg478
g0
(g479
g480
(dp949
I00
I8
stp950
Rp951
(dp952
g477
I8
sg485
Nsg486
(lp953
(I00
I8
tp954
asg490
Nsbsg491
I3
sg492
F9.5
sbs(g33
g27
tp955
g0
(g472
g2
Ntp956
Rp957
(dp958
g476
F0.5
sg477
I8
sg478
g0
(g479
g480
(dp959
I00
I8
stp960
Rp961
(dp962
g477
I8
sg485
Nsg486
(lp963
(I00
I8
tp964
asg490
Nsbsg491
I3
sg492
F9.5
sbs(g242
g229
tp965
g0
(g472
g2
Ntp966
Rp967
(dp968
g476
F0.5
sg477
I8
sg478
g0
(g479
g480
(dp969
I00
I8
stp970
Rp971
(dp972
g477
I8
sg485
Nsg486
(lp973
(I00
I8
tp974
asg490
Nsbsg491
I3
sg492
F9.5
sbs(g33
g12
tp975
g0
(g472
g2
Ntp976
Rp977
(dp978
g476
F0.5
sg477
I8
sg478
g0
(g479
g480
(dp979
I00
I8
stp980
Rp981
(dp982
g477
I8
sg485
Nsg486
(lp983
(I00
I8
tp984
asg490
Nsbsg491
I3
sg492
F9.5
sbssS'_label_probdist'
p985
g0
(g472
g2
Ntp986
Rp987
(dp988
g476
F0.5
sg477
I16
sg478
g0
(g479
g480
(dp989
g33
I8
sg242
I8
stp990
Rp991
(dp992
g477
I16
sg485
Nsg486
(lp993
(g242
I8
tp994
a(g33
I8
tp995
asg490
Nsbsg491
I2
sg492
F17.0
sbsbsb.