ccopy_reg
_reconstructor
p0
(ctextblob.classifiers
DecisionTreeClassifier
p1
c__builtin__
object
p2
Ntp3
Rp4
(dp5
S'train_features'
p6
(lp7
((dp8
Vcontains(The)
p9
I00
sVcontains(of)
p10
I00
sVcontains(motherfucker)
p11
I00
sVcontains(love)
p12
I00
sVcontains('re)
p13
I00
sVcontains(beer)
p14
I00
sVcontains(Great)
p15
I00
sVcontains(feel)
p16
I00
sVcontains(awesome)
p17
I00
sVcontains(kill)
p18
I00
sVcontains(die)
p19
I00
sVcontains(asshole)
p20
I00
sVcontains(a)
p21
I00
sVcontains(you)
p22
I00
sVcontains(mine)
p23
I00
sVcontains(dick)
p24
I00
sVcontains(friend)
p25
I00
sVcontains(dickhead)
p26
I00
sVcontains(Amazing)
p27
I00
sVcontains(fuck)
p28
I01
sVcontains(good)
p29
I00
sVcontains(was)
p30
I00
sVcontains(hate)
p31
I00
sVcontains(amazing)
p32
I00
sS'True'
p33
tp34
a((dp35
Vcontains(The)
p36
I00
sVcontains(of)
p37
I00
sVcontains(motherfucker)
p38
I00
sVcontains(love)
p39
I00
sVcontains('re)
p40
I00
sVcontains(beer)
p41
I00
sVcontains(Great)
p42
I00
sVcontains(feel)
p43
I00
sVcontains(awesome)
p44
I00
sVcontains(kill)
p45
I01
sVcontains(die)
p46
I00
sVcontains(asshole)
p47
I00
sVcontains(a)
p48
I00
sVcontains(you)
p49
I00
sVcontains(mine)
p50
I00
sVcontains(dick)
p51
I00
sVcontains(friend)
p52
I00
sVcontains(dickhead)
p53
I00
sVcontains(Amazing)
p54
I00
sVcontains(fuck)
p55
I00
sVcontains(good)
p56
I00
sVcontains(was)
p57
I00
sVcontains(hate)
p58
I00
sVcontains(amazing)
p59
I00
sg33
tp60
a((dp61
Vcontains(The)
p62
I00
sVcontains(of)
p63
I00
sVcontains(motherfucker)
p64
I00
sVcontains(love)
p65
I00
sVcontains('re)
p66
I00
sVcontains(beer)
p67
I00
sVcontains(Great)
p68
I00
sVcontains(feel)
p69
I00
sVcontains(awesome)
p70
I00
sVcontains(kill)
p71
I00
sVcontains(die)
p72
I00
sVcontains(asshole)
p73
I00
sVcontains(a)
p74
I00
sVcontains(you)
p75
I00
sVcontains(mine)
p76
I00
sVcontains(dick)
p77
I01
sVcontains(friend)
p78
I00
sVcontains(dickhead)
p79
I00
sVcontains(Amazing)
p80
I00
sVcontains(fuck)
p81
I00
sVcontains(good)
p82
I00
sVcontains(was)
p83
I00
sVcontains(hate)
p84
I00
sVcontains(amazing)
p85
I00
sg33
tp86
a((dp87
Vcontains(The)
p88
I00
sVcontains(of)
p89
I00
sVcontains(motherfucker)
p90
I00
sVcontains(love)
p91
I00
sVcontains('re)
p92
I00
sVcontains(beer)
p93
I00
sVcontains(Great)
p94
I00
sVcontains(feel)
p95
I00
sVcontains(awesome)
p96
I00
sVcontains(kill)
p97
I00
sVcontains(die)
p98
I01
sVcontains(asshole)
p99
I00
sVcontains(a)
p100
I00
sVcontains(you)
p101
I00
sVcontains(mine)
p102
I00
sVcontains(dick)
p103
I00
sVcontains(friend)
p104
I00
sVcontains(dickhead)
p105
I00
sVcontains(Amazing)
p106
I00
sVcontains(fuck)
p107
I00
sVcontains(good)
p108
I00
sVcontains(was)
p109
I00
sVcontains(hate)
p110
I00
sVcontains(amazing)
p111
I00
sg33
tp112
a((dp113
Vcontains(The)
p114
I00
sVcontains(of)
p115
I00
sVcontains(motherfucker)
p116
I00
sVcontains(love)
p117
I00
sVcontains('re)
p118
I00
sVcontains(beer)
p119
I00
sVcontains(Great)
p120
I00
sVcontains(feel)
p121
I00
sVcontains(awesome)
p122
I00
sVcontains(kill)
p123
I00
sVcontains(die)
p124
I00
sVcontains(asshole)
p125
I00
sVcontains(a)
p126
I00
sVcontains(you)
p127
I00
sVcontains(mine)
p128
I00
sVcontains(dick)
p129
I00
sVcontains(friend)
p130
I00
sVcontains(dickhead)
p131
I00
sVcontains(Amazing)
p132
I00
sVcontains(fuck)
p133
I00
sVcontains(good)
p134
I00
sVcontains(was)
p135
I00
sVcontains(hate)
p136
I01
sVcontains(amazing)
p137
I00
sg33
tp138
a((dp139
Vcontains(The)
p140
I00
sVcontains(of)
p141
I00
sVcontains(motherfucker)
p142
I00
sVcontains(love)
p143
I00
sVcontains('re)
p144
I00
sVcontains(beer)
p145
I00
sVcontains(Great)
p146
I00
sVcontains(feel)
p147
I00
sVcontains(awesome)
p148
I00
sVcontains(kill)
p149
I00
sVcontains(die)
p150
I00
sVcontains(asshole)
p151
I01
sVcontains(a)
p152
I00
sVcontains(you)
p153
I00
sVcontains(mine)
p154
I00
sVcontains(dick)
p155
I00
sVcontains(friend)
p156
I00
sVcontains(dickhead)
p157
I00
sVcontains(Amazing)
p158
I00
sVcontains(fuck)
p159
I00
sVcontains(good)
p160
I00
sVcontains(was)
p161
I00
sVcontains(hate)
p162
I00
sVcontains(amazing)
p163
I00
sg33
tp164
a((dp165
Vcontains(The)
p166
I00
sVcontains(of)
p167
I00
sVcontains(motherfucker)
p168
I00
sVcontains(love)
p169
I00
sVcontains('re)
p170
I00
sVcontains(beer)
p171
I00
sVcontains(Great)
p172
I00
sVcontains(feel)
p173
I00
sVcontains(awesome)
p174
I00
sVcontains(kill)
p175
I00
sVcontains(die)
p176
I00
sVcontains(asshole)
p177
I00
sVcontains(a)
p178
I00
sVcontains(you)
p179
I00
sVcontains(mine)
p180
I00
sVcontains(dick)
p181
I00
sVcontains(friend)
p182
I00
sVcontains(dickhead)
p183
I01
sVcontains(Amazing)
p184
I00
sVcontains(fuck)
p185
I00
sVcontains(good)
p186
I00
sVcontains(was)
p187
I00
sVcontains(hate)
p188
I00
sVcontains(amazing)
p189
I00
sg33
tp190
a((dp191
Vcontains(The)
p192
I00
sVcontains(of)
p193
I00
sVcontains(motherfucker)
p194
I01
sVcontains(love)
p195
I00
sVcontains('re)
p196
I00
sVcontains(beer)
p197
I00
sVcontains(Great)
p198
I00
sVcontains(feel)
p199
I00
sVcontains(awesome)
p200
I00
sVcontains(kill)
p201
I00
sVcontains(die)
p202
I00
sVcontains(asshole)
p203
I00
sVcontains(a)
p204
I00
sVcontains(you)
p205
I00
sVcontains(mine)
p206
I00
sVcontains(dick)
p207
I00
sVcontains(friend)
p208
I00
sVcontains(dickhead)
p209
I00
sVcontains(Amazing)
p210
I00
sVcontains(fuck)
p211
I00
sVcontains(good)
p212
I00
sVcontains(was)
p213
I00
sVcontains(hate)
p214
I00
sVcontains(amazing)
p215
I00
sg33
tp216
a((dp217
Vcontains(The)
p218
I01
sVcontains(of)
p219
I00
sVcontains(motherfucker)
p220
I00
sVcontains(love)
p221
I00
sVcontains('re)
p222
I00
sVcontains(beer)
p223
I01
sVcontains(Great)
p224
I00
sVcontains(feel)
p225
I00
sVcontains(awesome)
p226
I00
sVcontains(kill)
p227
I00
sVcontains(die)
p228
I00
sVcontains(asshole)
p229
I00
sVcontains(a)
p230
I00
sVcontains(you)
p231
I00
sVcontains(mine)
p232
I00
sVcontains(dick)
p233
I00
sVcontains(friend)
p234
I00
sVcontains(dickhead)
p235
I00
sVcontains(Amazing)
p236
I00
sVcontains(fuck)
p237
I00
sVcontains(good)
p238
I01
sVcontains(was)
p239
I01
sVcontains(hate)
p240
I00
sVcontains(amazing)
p241
I00
sS'False'
p242
tp243
a((dp244
Vcontains(The)
p245
I00
sVcontains(of)
p246
I00
sVcontains(motherfucker)
p247
I00
sVcontains(love)
p248
I00
sVcontains('re)
p249
I00
sVcontains(beer)
p250
I00
sVcontains(Great)
p251
I00
sVcontains(feel)
p252
I01
sVcontains(awesome)
p253
I00
sVcontains(kill)
p254
I00
sVcontains(die)
p255
I00
sVcontains(asshole)
p256
I00
sVcontains(a)
p257
I00
sVcontains(you)
p258
I00
sVcontains(mine)
p259
I00
sVcontains(dick)
p260
I00
sVcontains(friend)
p261
I00
sVcontains(dickhead)
p262
I00
sVcontains(Amazing)
p263
I00
sVcontains(fuck)
p264
I00
sVcontains(good)
p265
I00
sVcontains(was)
p266
I00
sVcontains(hate)
p267
I00
sVcontains(amazing)
p268
I01
sg242
tp269
a((dp270
Vcontains(The)
p271
I00
sVcontains(of)
p272
I01
sVcontains(motherfucker)
p273
I00
sVcontains(love)
p274
I00
sVcontains('re)
p275
I00
sVcontains(beer)
p276
I00
sVcontains(Great)
p277
I00
sVcontains(feel)
p278
I00
sVcontains(awesome)
p279
I00
sVcontains(kill)
p280
I00
sVcontains(die)
p281
I00
sVcontains(asshole)
p282
I00
sVcontains(a)
p283
I01
sVcontains(you)
p284
I00
sVcontains(mine)
p285
I01
sVcontains(dick)
p286
I00
sVcontains(friend)
p287
I01
sVcontains(dickhead)
p288
I00
sVcontains(Amazing)
p289
I00
sVcontains(fuck)
p290
I00
sVcontains(good)
p291
I00
sVcontains(was)
p292
I00
sVcontains(hate)
p293
I00
sVcontains(amazing)
p294
I00
sg242
tp295
a((dp296
Vcontains(The)
p297
I00
sVcontains(of)
p298
I00
sVcontains(motherfucker)
p299
I00
sVcontains(love)
p300
I00
sVcontains('re)
p301
I00
sVcontains(beer)
p302
I00
sVcontains(Great)
p303
I00
sVcontains(feel)
p304
I00
sVcontains(awesome)
p305
I00
sVcontains(kill)
p306
I00
sVcontains(die)
p307
I00
sVcontains(asshole)
p308
I00
sVcontains(a)
p309
I00
sVcontains(you)
p310
I00
sVcontains(mine)
p311
I00
sVcontains(dick)
p312
I00
sVcontains(friend)
p313
I00
sVcontains(dickhead)
p314
I00
sVcontains(Amazing)
p315
I01
sVcontains(fuck)
p316
I00
sVcontains(good)
p317
I00
sVcontains(was)
p318
I00
sVcontains(hate)
p319
I00
sVcontains(amazing)
p320
I00
sg242
tp321
a((dp322
Vcontains(The)
p323
I00
sVcontains(of)
p324
I00
sVcontains(motherfucker)
p325
I00
sVcontains(love)
p326
I00
sVcontains('re)
p327
I00
sVcontains(beer)
p328
I00
sVcontains(Great)
p329
I01
sVcontains(feel)
p330
I00
sVcontains(awesome)
p331
I00
sVcontains(kill)
p332
I00
sVcontains(die)
p333
I00
sVcontains(asshole)
p334
I00
sVcontains(a)
p335
I00
sVcontains(you)
p336
I00
sVcontains(mine)
p337
I00
sVcontains(dick)
p338
I00
sVcontains(friend)
p339
I00
sVcontains(dickhead)
p340
I00
sVcontains(Amazing)
p341
I00
sVcontains(fuck)
p342
I00
sVcontains(good)
p343
I00
sVcontains(was)
p344
I00
sVcontains(hate)
p345
I00
sVcontains(amazing)
p346
I00
sg242
tp347
a((dp348
Vcontains(The)
p349
I00
sVcontains(of)
p350
I00
sVcontains(motherfucker)
p351
I00
sVcontains(love)
p352
I01
sVcontains('re)
p353
I00
sVcontains(beer)
p354
I00
sVcontains(Great)
p355
I00
sVcontains(feel)
p356
I00
sVcontains(awesome)
p357
I00
sVcontains(kill)
p358
I00
sVcontains(die)
p359
I00
sVcontains(asshole)
p360
I00
sVcontains(a)
p361
I00
sVcontains(you)
p362
I00
sVcontains(mine)
p363
I00
sVcontains(dick)
p364
I00
sVcontains(friend)
p365
I00
sVcontains(dickhead)
p366
I00
sVcontains(Amazing)
p367
I00
sVcontains(fuck)
p368
I00
sVcontains(good)
p369
I00
sVcontains(was)
p370
I00
sVcontains(hate)
p371
I00
sVcontains(amazing)
p372
I00
sg242
tp373
a((dp374
Vcontains(The)
p375
I00
sVcontains(of)
p376
I00
sVcontains(motherfucker)
p377
I00
sVcontains(love)
p378
I00
sVcontains('re)
p379
I00
sVcontains(beer)
p380
I00
sVcontains(Great)
p381
I00
sVcontains(feel)
p382
I00
sVcontains(awesome)
p383
I01
sVcontains(kill)
p384
I00
sVcontains(die)
p385
I00
sVcontains(asshole)
p386
I00
sVcontains(a)
p387
I00
sVcontains(you)
p388
I00
sVcontains(mine)
p389
I00
sVcontains(dick)
p390
I00
sVcontains(friend)
p391
I00
sVcontains(dickhead)
p392
I00
sVcontains(Amazing)
p393
I00
sVcontains(fuck)
p394
I00
sVcontains(good)
p395
I00
sVcontains(was)
p396
I00
sVcontains(hate)
p397
I00
sVcontains(amazing)
p398
I00
sg242
tp399
a((dp400
Vcontains(The)
p401
I00
sVcontains(of)
p402
I00
sVcontains(motherfucker)
p403
I00
sVcontains(love)
p404
I00
sVcontains('re)
p405
I00
sVcontains(beer)
p406
I00
sVcontains(Great)
p407
I00
sVcontains(feel)
p408
I00
sVcontains(awesome)
p409
I01
sVcontains(kill)
p410
I00
sVcontains(die)
p411
I00
sVcontains(asshole)
p412
I00
sVcontains(a)
p413
I00
sVcontains(you)
p414
I01
sVcontains(mine)
p415
I00
sVcontains(dick)
p416
I00
sVcontains(friend)
p417
I00
sVcontains(dickhead)
p418
I00
sVcontains(Amazing)
p419
I00
sVcontains(fuck)
p420
I00
sVcontains(good)
p421
I00
sVcontains(was)
p422
I00
sVcontains(hate)
p423
I00
sVcontains(amazing)
p424
I00
sg242
tp425
asS'train_set'
p426
(lp427
(S'fuck'
p428
g33
tp429
a(S'kill'
p430
g33
tp431
a(S'dick'
p432
g33
tp433
a(S'die'
p434
g33
tp435
a(S'hate'
p436
g33
tp437
a(S'asshole'
p438
g33
tp439
a(S'dickhead'
p440
g33
tp441
a(S'motherfucker'
p442
g33
tp443
a(S'The beer was good.'
p444
g242
tp445
a(S'feel amazing!'
p446
g242
tp447
a(S'a friend of mine.'
p448
g242
tp449
a(S'Amazing'
p450
g242
tp451
a(S'Great'
p452
g242
tp453
a(S'love'
p454
g242
tp455
a(S'awesome'
p456
g242
tp457
a(S"you're awesome"
p458
g242
tp459
asS'feature_extractor'
p460
ctextblob.classifiers
basic_extractor
p461
sS'classifier'
p462
g0
(cnltk.classify.decisiontree
DecisionTreeClassifier
p463
g2
Ntp464
Rp465
(dp466
S'_fname'
p467
g17
sS'_label'
p468
g242
sS'_decisions'
p469
(dp470
I00
g0
(g463
g2
Ntp471
Rp472
(dp473
g467
g9
sg468
g242
sg469
(dp474
I00
g0
(g463
g2
Ntp475
Rp476
(dp477
g467
g10
sg468
g242
sg469
(dp478
I00
g0
(g463
g2
Ntp479
Rp480
(dp481
g467
g12
sg468
g242
sg469
(dp482
I00
g0
(g463
g2
Ntp483
Rp484
(dp485
g467
g15
sg468
g242
sg469
(dp486
I00
g0
(g463
g2
Ntp487
Rp488
(dp489
g467
g16
sg468
g242
sg469
(dp490
I00
g0
(g463
g2
Ntp491
Rp492
(dp493
g467
Nsg468
g33
sg469
NsS'_default'
p494
NsbsI01
g0
(g463
g2
Ntp495
Rp496
(dp497
g467
Nsg468
g242
sg469
Nsg494
Nsbssg494
NsbsI01
g0
(g463
g2
Ntp498
Rp499
(dp500
g467
Nsg468
g242
sg469
Nsg494
Nsbssg494
NsbsI01
g0
(g463
g2
Ntp501
Rp502
(dp503
g467
Nsg468
g242
sg469
Nsg494
Nsbssg494
NsbsI01
g0
(g463
g2
Ntp504
Rp505
(dp506
g467
Nsg468
g242
sg469
Nsg494
Nsbssg494
NsbsI01
g0
(g463
g2
Ntp507
Rp508
(dp509
g467
Nsg468
g242
sg469
Nsg494
Nsbssg494
NsbsI01
g0
(g463
g2
Ntp510
Rp511
(dp512
g467
Nsg468
g242
sg469
Nsg494
Nsbssg494
Nsbsb.